; Function Attrs: mustprogress ssp uwtable
define void @_ZN6open3d13visualization30ViewControlWithCustomAnimation16SetAnimationModeENS1_13AnimationModeE(ptr noundef nonnull align 16 dereferenceable(816) %0, i32 noundef %1) local_unnamed_addr #1 align 2 {
  %.not = icmp eq i32 %1, 0
  br i1 %.not, label %.thread, label %4

.thread:                                          ; preds = %2
  %3 = getelementptr inbounds nuw i8, ptr %0, i64 728
  store i32 0, ptr %3, align 8, !tbaa !26
  br label %_ZN6open3d13visualization30ViewControlWithCustomAnimation9GoToFirstEv.exit

4:                                                ; preds = %2
  %5 = getelementptr inbounds nuw i8, ptr %0, i64 744
  %6 = load ptr, ptr %5, align 8, !tbaa !53
  %7 = getelementptr inbounds nuw i8, ptr %0, i64 752
  %8 = load ptr, ptr %7, align 16, !tbaa !53
  %9 = icmp eq ptr %6, %8
  br i1 %9, label %_ZN6open3d13visualization30ViewControlWithCustomAnimation9GoToFirstEv.exit, label %10

10:                                               ; preds = %4
  %11 = getelementptr inbounds nuw i8, ptr %0, i64 728
  store i32 %1, ptr %11, align 8, !tbaa !26
  %switch = icmp ult i32 %1, 3
  br i1 %switch, label %12, label %_ZN6open3d13visualization30ViewControlWithCustomAnimation9GoToFirstEv.exit

12:                                               ; preds = %10
  %13 = getelementptr inbounds nuw i8, ptr %0, i64 736
  tail call void @_ZN6open3d13visualization14ViewTrajectory32ComputeInterpolationCoefficientsEv(ptr noundef nonnull align 8 dereferenceable(64) %13)
  %14 = load ptr, ptr %5, align 8, !tbaa !53
  %15 = load ptr, ptr %7, align 16, !tbaa !53
  %16 = icmp eq ptr %14, %15
  br i1 %16, label %_ZN6open3d13visualization30ViewControlWithCustomAnimation9GoToFirstEv.exit, label %17

17:                                               ; preds = %12
  %18 = load i32, ptr %11, align 8, !tbaa !26
  %19 = icmp eq i32 %18, 0
  br i1 %19, label %20, label %22

20:                                               ; preds = %17
  %21 = getelementptr inbounds nuw i8, ptr %0, i64 808
  store double 0.000000e+00, ptr %21, align 8, !tbaa !83
  br label %24

22:                                               ; preds = %17
  %23 = getelementptr inbounds nuw i8, ptr %0, i64 800
  store double 0.000000e+00, ptr %23, align 16, !tbaa !84
  br label %24

24:                                               ; preds = %22, %20
  tail call void @_ZN6open3d13visualization30ViewControlWithCustomAnimation28SetViewControlFromTrajectoryEv(ptr noundef nonnull align 16 dereferenceable(816) %0)
  br label %_ZN6open3d13visualization30ViewControlWithCustomAnimation9GoToFirstEv.exit

_ZN6open3d13visualization30ViewControlWithCustomAnimation9GoToFirstEv.exit: ; preds = %24, %12, %.thread, %10, %4
  ret void
}